target datalayout = "e-m:e-p270:32:32-p271:32:32-p272:64:64-i64:64-i128:128-f80:128-n8:16:32:64-S128"
target triple = "x86_64-pc-linux-gnu"

%"struct.SystemDictionaryShared::ArchiveInfo" = type { %class.RunTimeSharedDictionary, %class.RunTimeSharedDictionary, %class.LambdaProxyClassDictionary }
%class.RunTimeSharedDictionary = type { %class.OffsetCompactHashtable }
%class.OffsetCompactHashtable = type { %class.CompactHashtable }
%class.CompactHashtable = type { %class.SimpleCompactHashtable }
%class.SimpleCompactHashtable = type { ptr, i32, i32, ptr, ptr }
%class.LambdaProxyClassDictionary = type { %class.OffsetCompactHashtable.0 }
%class.OffsetCompactHashtable.0 = type { %class.CompactHashtable.1 }
%class.CompactHashtable.1 = type { %class.SimpleCompactHashtable }

@_ZN22SystemDictionaryShared15_static_archiveE = hidden global %"struct.SystemDictionaryShared::ArchiveInfo" zeroinitializer, align 8
@_ZN22SystemDictionaryShared16_dynamic_archiveE = hidden global %"struct.SystemDictionaryShared::ArchiveInfo" zeroinitializer, align 8
@.str.64 = private unnamed_addr constant [1 x i8] zeroinitializer, align 1
@.str.65 = private unnamed_addr constant [9 x i8] c"Dynamic \00", align 1
@_ZN11FileMapInfo21_dynamic_archive_infoE = external global ptr, align 8

; Function Attrs: mustprogress nounwind uwtable
define linkonce_odr hidden noundef ptr @_ZN11FileMapInfo12dynamic_infoEv() #1 comdat align 2 {
  %1 = load ptr, ptr @_ZN11FileMapInfo21_dynamic_archive_infoE, align 8
  ret ptr %1
}

; Function Attrs: mustprogress nounwind uwtable
define linkonce_odr hidden noundef zeroext i1 @_ZN14DynamicArchive9is_mappedEv() #1 comdat align 2 {
  %1 = call noundef ptr @_ZN11FileMapInfo12dynamic_infoEv()
  %2 = icmp ne ptr %1, null
  ret i1 %2
}

; Function Attrs: mustprogress nounwind uwtable
define hidden void @_ZN22SystemDictionaryShared20print_shared_archiveEP12outputStreamb(ptr noundef %0, i1 noundef zeroext %1) #1 align 2 {
  %3 = alloca ptr, align 8
  %4 = alloca i8, align 1
  store ptr %0, ptr %3, align 8
  %5 = zext i1 %1 to i8
  store i8 %5, ptr %4, align 1
  %6 = call noundef zeroext i1 @_ZN9CDSConfig16is_using_archiveEv()
  br i1 %6, label %7, label %18

7:                                                ; preds = %2
  %8 = load i8, ptr %4, align 1
  %9 = trunc i8 %8 to i1
  br i1 %9, label %10, label %12

10:                                               ; preds = %7
  %11 = load ptr, ptr %3, align 8
  call void @_ZN22SystemDictionaryShared11ArchiveInfo8print_onEPKcP12outputStream(ptr noundef nonnull align 8 dereferenceable(96) @_ZN22SystemDictionaryShared15_static_archiveE, ptr noundef @.str.64, ptr noundef %11)
  br label %17

12:                                               ; preds = %7
  %13 = call noundef zeroext i1 @_ZN14DynamicArchive9is_mappedEv()
  br i1 %13, label %14, label %16

14:                                               ; preds = %12
  %15 = load ptr, ptr %3, align 8
  call void @_ZN22SystemDictionaryShared11ArchiveInfo8print_onEPKcP12outputStream(ptr noundef nonnull align 8 dereferenceable(96) @_ZN22SystemDictionaryShared16_dynamic_archiveE, ptr noundef @.str.65, ptr noundef %15)
  br label %16

16:                                               ; preds = %14, %12
  br label %17

17:                                               ; preds = %16, %10
  br label %18

18:                                               ; preds = %17, %2
  ret void
}

; Function Attrs: mustprogress nounwind uwtable
define hidden void @_ZN22SystemDictionaryShared8print_onEP12outputStream(ptr noundef %0) #1 align 2 {
  %2 = alloca ptr, align 8
  store ptr %0, ptr %2, align 8
  %3 = load ptr, ptr %2, align 8
  call void @_ZN22SystemDictionaryShared20print_shared_archiveEP12outputStreamb(ptr noundef %3, i1 noundef zeroext true)
  %4 = load ptr, ptr %2, align 8
  call void @_ZN22SystemDictionaryShared20print_shared_archiveEP12outputStreamb(ptr noundef %4, i1 noundef zeroext false)
  ret void
}