; Function Attrs: mustprogress nounwind uwtable
define hidden void @_ZN22SystemDictionaryShared8print_onEP12outputStream(ptr noundef %0) local_unnamed_addr #0 align 2 {
  %2 = tail call noundef zeroext i1 @_ZN9CDSConfig16is_using_archiveEv() #18
  br i1 %2, label %3, label %_ZN22SystemDictionaryShared20print_shared_archiveEP12outputStreamb.exit

3:                                                ; preds = %1
  tail call void @_ZN22SystemDictionaryShared11ArchiveInfo8print_onEPKcP12outputStream(ptr noundef nonnull align 8 dereferenceable(96) @_ZN22SystemDictionaryShared15_static_archiveE, ptr noundef nonnull @.str.64, ptr noundef %0)
  br label %_ZN22SystemDictionaryShared20print_shared_archiveEP12outputStreamb.exit

_ZN22SystemDictionaryShared20print_shared_archiveEP12outputStreamb.exit: ; preds = %1, %3
  %4 = tail call noundef zeroext i1 @_ZN9CDSConfig16is_using_archiveEv() #18
  %5 = load ptr, ptr @_ZN11FileMapInfo21_dynamic_archive_infoE, align 8
  %.not.i = icmp ne ptr %5, null
  %or.cond.not = select i1 %4, i1 %.not.i, i1 false
  br i1 %or.cond.not, label %6, label %_ZN22SystemDictionaryShared20print_shared_archiveEP12outputStreamb.exit2

6:                                                ; preds = %_ZN22SystemDictionaryShared20print_shared_archiveEP12outputStreamb.exit
  tail call void @_ZN22SystemDictionaryShared11ArchiveInfo8print_onEPKcP12outputStream(ptr noundef nonnull align 8 dereferenceable(96) @_ZN22SystemDictionaryShared16_dynamic_archiveE, ptr noundef nonnull @.str.65, ptr noundef %0)
  br label %_ZN22SystemDictionaryShared20print_shared_archiveEP12outputStreamb.exit2

_ZN22SystemDictionaryShared20print_shared_archiveEP12outputStreamb.exit2: ; preds = %_ZN22SystemDictionaryShared20print_shared_archiveEP12outputStreamb.exit, %6
  ret void
}